target datalayout = "e-m:e-p270:32:32-p271:32:32-p272:64:64-i64:64-i128:128-f80:128-n8:16:32:64-S128"
target triple = "x86_64-pc-linux-gnu"

%struct.stbte_tilemap = type { [200 x [200 x [8 x i16]]], [200 x [200 x [1 x float]]], i32, i32, i32, i32, i32, i32, i32, i32, i32, i32, i32, i32, [100 x ptr], i32, i32, ptr, i32, i32, i32, i8, i8, i8, i8, i32, i32, i32, [8 x %struct.stbte__layer], i32, i32, i32, i32, i32, i32, i32, i32, i16, [4096 x i8], ptr }
%struct.stbte__layer = type { ptr, i32, i32 }

; Function Attrs: nounwind uwtable
define i32 @stbte__redo_find_end(ptr noundef %0) #0 {
  %2 = alloca i32, align 4
  %3 = alloca ptr, align 8
  %4 = alloca i32, align 4
  %5 = alloca i32, align 4
  %6 = alloca i32, align 4
  store ptr %0, ptr %3, align 8, !tbaa !25
  call void @llvm.lifetime.start.p0(i64 4, ptr %4) #8
  call void @llvm.lifetime.start.p0(i64 4, ptr %5) #8
  %7 = load ptr, ptr %3, align 8, !tbaa !25
  %8 = getelementptr inbounds nuw %struct.stbte_tilemap, ptr %7, i32 0, i32 34
  %9 = load i32, ptr %8, align 4, !tbaa !45
  %10 = add nsw i32 %9, 1
  %11 = and i32 %10, 8388607
  store i32 %11, ptr %5, align 4, !tbaa !13
  store i32 0, ptr %4, align 4, !tbaa !13
  br label %12

12:                                               ; preds = %51, %1
  %13 = load i32, ptr %4, align 4, !tbaa !13
  %14 = load ptr, ptr %3, align 8, !tbaa !25
  %15 = getelementptr inbounds nuw %struct.stbte_tilemap, ptr %14, i32 0, i32 36
  %16 = load i32, ptr %15, align 4, !tbaa !44
  %17 = icmp slt i32 %13, %16
  br i1 %17, label %18, label %52

18:                                               ; preds = %12
  %19 = load ptr, ptr %3, align 8, !tbaa !25
  %20 = getelementptr inbounds nuw %struct.stbte_tilemap, ptr %19, i32 0, i32 39
  %21 = load ptr, ptr %20, align 8, !tbaa !29
  %22 = load i32, ptr %5, align 4, !tbaa !13
  %23 = sext i32 %22 to i64
  %24 = getelementptr inbounds i16, ptr %21, i64 %23
  %25 = load i16, ptr %24, align 2, !tbaa !22
  %26 = sext i16 %25 to i32
  %27 = icmp eq i32 %26, -3
  br i1 %27, label %28, label %29

28:                                               ; preds = %18
  br label %52

29:                                               ; preds = %18
  %30 = load ptr, ptr %3, align 8, !tbaa !25
  %31 = getelementptr inbounds nuw %struct.stbte_tilemap, ptr %30, i32 0, i32 39
  %32 = load ptr, ptr %31, align 8, !tbaa !29
  %33 = load i32, ptr %5, align 4, !tbaa !13
  %34 = sext i32 %33 to i64
  %35 = getelementptr inbounds i16, ptr %32, i64 %34
  %36 = load i16, ptr %35, align 2, !tbaa !22
  %37 = sext i16 %36 to i32
  %38 = icmp sge i32 %37, 255
  br i1 %38, label %39, label %45

39:                                               ; preds = %29
  %40 = load i32, ptr %5, align 4, !tbaa !13
  %41 = add nsw i32 %40, 5
  %42 = and i32 %41, 8388607
  store i32 %42, ptr %5, align 4, !tbaa !13
  %43 = load i32, ptr %4, align 4, !tbaa !13
  %44 = add nsw i32 %43, 5
  store i32 %44, ptr %4, align 4, !tbaa !13
  br label %51

45:                                               ; preds = %29
  %46 = load i32, ptr %5, align 4, !tbaa !13
  %47 = add nsw i32 %46, 4
  %48 = and i32 %47, 8388607
  store i32 %48, ptr %5, align 4, !tbaa !13
  %49 = load i32, ptr %4, align 4, !tbaa !13
  %50 = add nsw i32 %49, 4
  store i32 %50, ptr %4, align 4, !tbaa !13
  br label %51

51:                                               ; preds = %45, %39
  br label %12, !llvm.loop !92

52:                                               ; preds = %28, %12
  %53 = load i32, ptr %4, align 4, !tbaa !13
  %54 = load ptr, ptr %3, align 8, !tbaa !25
  %55 = getelementptr inbounds nuw %struct.stbte_tilemap, ptr %54, i32 0, i32 36
  %56 = load i32, ptr %55, align 4, !tbaa !44
  %57 = icmp sge i32 %53, %56
  br i1 %57, label %58, label %59

58:                                               ; preds = %52
  store i32 -1, ptr %2, align 4
  store i32 1, ptr %6, align 4
  br label %61

59:                                               ; preds = %52
  %60 = load i32, ptr %5, align 4, !tbaa !13
  store i32 %60, ptr %2, align 4
  store i32 1, ptr %6, align 4
  br label %61

61:                                               ; preds = %59, %58
  call void @llvm.lifetime.end.p0(i64 4, ptr %5) #8
  call void @llvm.lifetime.end.p0(i64 4, ptr %4) #8
  %62 = load i32, ptr %2, align 4
  ret i32 %62
}

; Function Attrs: nounwind uwtable
define i32 @stbte__undo_find_end(ptr noundef %0) #0 {
  %2 = alloca i32, align 4
  %3 = alloca ptr, align 8
  %4 = alloca i32, align 4
  %5 = alloca i32, align 4
  %6 = alloca i32, align 4
  store ptr %0, ptr %3, align 8, !tbaa !25
  call void @llvm.lifetime.start.p0(i64 4, ptr %4) #8
  call void @llvm.lifetime.start.p0(i64 4, ptr %5) #8
  %7 = load ptr, ptr %3, align 8, !tbaa !25
  %8 = getelementptr inbounds nuw %struct.stbte_tilemap, ptr %7, i32 0, i32 34
  %9 = load i32, ptr %8, align 4, !tbaa !45
  %10 = sub nsw i32 %9, 1
  %11 = and i32 %10, 8388607
  store i32 %11, ptr %5, align 4, !tbaa !13
  store i32 0, ptr %4, align 4, !tbaa !13
  br label %12

12:                                               ; preds = %51, %1
  %13 = load i32, ptr %4, align 4, !tbaa !13
  %14 = load ptr, ptr %3, align 8, !tbaa !25
  %15 = getelementptr inbounds nuw %struct.stbte_tilemap, ptr %14, i32 0, i32 35
  %16 = load i32, ptr %15, align 8, !tbaa !43
  %17 = icmp slt i32 %13, %16
  br i1 %17, label %18, label %52

18:                                               ; preds = %12
  %19 = load ptr, ptr %3, align 8, !tbaa !25
  %20 = getelementptr inbounds nuw %struct.stbte_tilemap, ptr %19, i32 0, i32 39
  %21 = load ptr, ptr %20, align 8, !tbaa !29
  %22 = load i32, ptr %5, align 4, !tbaa !13
  %23 = sext i32 %22 to i64
  %24 = getelementptr inbounds i16, ptr %21, i64 %23
  %25 = load i16, ptr %24, align 2, !tbaa !22
  %26 = sext i16 %25 to i32
  %27 = icmp eq i32 %26, -2
  br i1 %27, label %28, label %29

28:                                               ; preds = %18
  br label %52

29:                                               ; preds = %18
  %30 = load ptr, ptr %3, align 8, !tbaa !25
  %31 = getelementptr inbounds nuw %struct.stbte_tilemap, ptr %30, i32 0, i32 39
  %32 = load ptr, ptr %31, align 8, !tbaa !29
  %33 = load i32, ptr %5, align 4, !tbaa !13
  %34 = sext i32 %33 to i64
  %35 = getelementptr inbounds i16, ptr %32, i64 %34
  %36 = load i16, ptr %35, align 2, !tbaa !22
  %37 = sext i16 %36 to i32
  %38 = icmp sge i32 %37, 255
  br i1 %38, label %39, label %45

39:                                               ; preds = %29
  %40 = load i32, ptr %5, align 4, !tbaa !13
  %41 = sub nsw i32 %40, 5
  %42 = and i32 %41, 8388607
  store i32 %42, ptr %5, align 4, !tbaa !13
  %43 = load i32, ptr %4, align 4, !tbaa !13
  %44 = add nsw i32 %43, 5
  store i32 %44, ptr %4, align 4, !tbaa !13
  br label %51

45:                                               ; preds = %29
  %46 = load i32, ptr %5, align 4, !tbaa !13
  %47 = sub nsw i32 %46, 4
  %48 = and i32 %47, 8388607
  store i32 %48, ptr %5, align 4, !tbaa !13
  %49 = load i32, ptr %4, align 4, !tbaa !13
  %50 = add nsw i32 %49, 4
  store i32 %50, ptr %4, align 4, !tbaa !13
  br label %51

51:                                               ; preds = %45, %39
  br label %12, !llvm.loop !90

52:                                               ; preds = %28, %12
  %53 = load i32, ptr %4, align 4, !tbaa !13
  %54 = load ptr, ptr %3, align 8, !tbaa !25
  %55 = getelementptr inbounds nuw %struct.stbte_tilemap, ptr %54, i32 0, i32 35
  %56 = load i32, ptr %55, align 8, !tbaa !43
  %57 = icmp sge i32 %53, %56
  br i1 %57, label %58, label %59

58:                                               ; preds = %52
  store i32 -1, ptr %2, align 4
  store i32 1, ptr %6, align 4
  br label %61

59:                                               ; preds = %52
  %60 = load i32, ptr %5, align 4, !tbaa !13
  store i32 %60, ptr %2, align 4
  store i32 1, ptr %6, align 4
  br label %61

61:                                               ; preds = %59, %58
  call void @llvm.lifetime.end.p0(i64 4, ptr %5) #8
  call void @llvm.lifetime.end.p0(i64 4, ptr %4) #8
  %62 = load i32, ptr %2, align 4
  ret i32 %62
}

; Function Attrs: nounwind uwtable
define void @stbte__recompute_undo_available(ptr noundef %0) #0 {
  %2 = alloca ptr, align 8
  store ptr %0, ptr %2, align 8, !tbaa !25
  %3 = load ptr, ptr %2, align 8, !tbaa !25
  %4 = call i32 @stbte__undo_find_end(ptr noundef %3)
  %5 = icmp sge i32 %4, 0
  %6 = zext i1 %5 to i32
  %7 = trunc i32 %6 to i8
  %8 = load ptr, ptr %2, align 8, !tbaa !25
  %9 = getelementptr inbounds nuw %struct.stbte_tilemap, ptr %8, i32 0, i32 22
  store i8 %7, ptr %9, align 1, !tbaa !94
  %10 = load ptr, ptr %2, align 8, !tbaa !25
  %11 = call i32 @stbte__redo_find_end(ptr noundef %10)
  %12 = icmp sge i32 %11, 0
  %13 = zext i1 %12 to i32
  %14 = trunc i32 %13 to i8
  %15 = load ptr, ptr %2, align 8, !tbaa !25
  %16 = getelementptr inbounds nuw %struct.stbte_tilemap, ptr %15, i32 0, i32 23
  store i8 %14, ptr %16, align 2, !tbaa !95
  ret void
}