; Function Attrs: nofree norecurse nosync nounwind memory(read, argmem: readwrite, inaccessiblemem: none) uwtable
define void @stbte__recompute_undo_available(ptr noundef captures(none) %0) local_unnamed_addr #8 {
  %2 = getelementptr inbounds nuw i8, ptr %0, i64 801048
  %3 = load i32, ptr %2, align 8, !tbaa !41
  %4 = icmp sgt i32 %3, 0
  br i1 %4, label %.lr.ph.i, label %stbte__undo_find_end.exit

.lr.ph.i:                                         ; preds = %1
  %5 = getelementptr inbounds nuw i8, ptr %0, i64 801044
  %6 = load i32, ptr %5, align 4, !tbaa !43
  %7 = add i32 %6, 8388607
  %8 = getelementptr inbounds nuw i8, ptr %0, i64 805160
  %9 = load ptr, ptr %8, align 8, !tbaa !27
  br label %10

10:                                               ; preds = %15, %.lr.ph.i
  %.020.in.i = phi i32 [ %7, %.lr.ph.i ], [ %.1.in.i, %15 ]
  %.01419.i = phi i32 [ 0, %.lr.ph.i ], [ %.115.i, %15 ]
  %.020.i = and i32 %.020.in.i, 8388607
  %11 = zext nneg i32 %.020.i to i64
  %12 = getelementptr inbounds nuw i16, ptr %9, i64 %11
  %13 = load i16, ptr %12, align 2, !tbaa !21
  %14 = icmp eq i16 %13, -2
  br i1 %14, label %stbte__undo_find_end.exit, label %15

15:                                               ; preds = %10
  %16 = icmp sgt i16 %13, 254
  %.115.v.i = select i1 %16, i32 5, i32 4
  %.115.i = add nuw nsw i32 %.115.v.i, %.01419.i
  %.1.in.v.i = select i1 %16, i32 8388603, i32 8388604
  %.1.in.i = add nuw nsw i32 %.1.in.v.i, %.020.i
  %17 = icmp slt i32 %.115.i, %3
  br i1 %17, label %10, label %stbte__undo_find_end.exit, !llvm.loop !78

stbte__undo_find_end.exit:                        ; preds = %10, %15, %1
  %.0..i = phi i8 [ 0, %1 ], [ 0, %15 ], [ 1, %10 ]
  %18 = getelementptr inbounds nuw i8, ptr %0, i64 800877
  store i8 %.0..i, ptr %18, align 1, !tbaa !82
  %19 = getelementptr inbounds nuw i8, ptr %0, i64 801052
  %20 = load i32, ptr %19, align 4, !tbaa !42
  %21 = icmp sgt i32 %20, 0
  br i1 %21, label %.lr.ph.i5, label %stbte__redo_find_end.exit

.lr.ph.i5:                                        ; preds = %stbte__undo_find_end.exit
  %22 = getelementptr inbounds nuw i8, ptr %0, i64 801044
  %23 = load i32, ptr %22, align 4, !tbaa !43
  %24 = add nsw i32 %23, 1
  %25 = getelementptr inbounds nuw i8, ptr %0, i64 805160
  %26 = load ptr, ptr %25, align 8, !tbaa !27
  br label %27

27:                                               ; preds = %32, %.lr.ph.i5
  %.020.in.i6 = phi i32 [ %24, %.lr.ph.i5 ], [ %.1.in.i11, %32 ]
  %.01419.i7 = phi i32 [ 0, %.lr.ph.i5 ], [ %.115.i10, %32 ]
  %.020.i8 = and i32 %.020.in.i6, 8388607
  %28 = zext nneg i32 %.020.i8 to i64
  %29 = getelementptr inbounds nuw i16, ptr %26, i64 %28
  %30 = load i16, ptr %29, align 2, !tbaa !21
  %31 = icmp eq i16 %30, -3
  br i1 %31, label %stbte__redo_find_end.exit, label %32

32:                                               ; preds = %27
  %33 = icmp sgt i16 %30, 254
  %.115.v.i9 = select i1 %33, i32 5, i32 4
  %.115.i10 = add nuw nsw i32 %.115.v.i9, %.01419.i7
  %.1.in.i11 = add nuw nsw i32 %.115.v.i9, %.020.i8
  %34 = icmp slt i32 %.115.i10, %20
  br i1 %34, label %27, label %stbte__redo_find_end.exit, !llvm.loop !80

stbte__redo_find_end.exit:                        ; preds = %27, %32, %stbte__undo_find_end.exit
  %.0..i4 = phi i8 [ 0, %stbte__undo_find_end.exit ], [ 0, %32 ], [ 1, %27 ]
  %35 = getelementptr inbounds nuw i8, ptr %0, i64 800878
  store i8 %.0..i4, ptr %35, align 2, !tbaa !83
  ret void
}